target datalayout = "e-m:e-p270:32:32-p271:32:32-p272:64:64-i64:64-i128:128-f80:128-n8:16:32:64-S128"
target triple = "x86_64-pc-linux-gnu"

%struct.mbedtls_ssl_ticket_context = type { [2 x %struct.mbedtls_ssl_ticket_key], i8, i32, ptr, ptr }
%struct.mbedtls_ssl_ticket_key = type { [4 x i8], i64, i32, %struct.mbedtls_cipher_context_t }
%struct.mbedtls_cipher_context_t = type { ptr, i32, i32, ptr, ptr, [16 x i8], i64, [16 x i8], i64, ptr, ptr }
%struct.mbedtls_cipher_info_t = type { ptr, i32 }

; Function Attrs: inlinehint nounwind uwtable
define internal i32 @mbedtls_cipher_get_key_bitlen(ptr noundef %0) #3 {
  %2 = alloca i32, align 4
  %3 = alloca ptr, align 8
  store ptr %0, ptr %3, align 8, !tbaa !26
  %4 = load ptr, ptr %3, align 8, !tbaa !26
  %5 = getelementptr inbounds nuw %struct.mbedtls_cipher_context_t, ptr %4, i32 0, i32 0
  %6 = load ptr, ptr %5, align 8, !tbaa !28
  %7 = icmp eq ptr %6, null
  br i1 %7, label %8, label %9

8:                                                ; preds = %1
  store i32 0, ptr %2, align 4
  br label %18

9:                                                ; preds = %1
  %10 = load ptr, ptr %3, align 8, !tbaa !26
  %11 = getelementptr inbounds nuw %struct.mbedtls_cipher_context_t, ptr %10, i32 0, i32 0
  %12 = load ptr, ptr %11, align 8, !tbaa !28
  %13 = getelementptr inbounds nuw %struct.mbedtls_cipher_info_t, ptr %12, i32 0, i32 1
  %14 = load i32, ptr %13, align 8
  %15 = lshr i32 %14, 8
  %16 = and i32 %15, 15
  %17 = shl i32 %16, 6
  store i32 %17, ptr %2, align 4
  br label %18

18:                                               ; preds = %9, %8
  %19 = load i32, ptr %2, align 4
  ret i32 %19
}

; Function Attrs: nounwind uwtable
define internal i32 @ssl_ticket_gen_key(ptr noundef %0, i8 noundef zeroext %1) #0 {
  %3 = alloca i32, align 4
  %4 = alloca ptr, align 8
  %5 = alloca i8, align 1
  %6 = alloca i32, align 4
  %7 = alloca [32 x i8], align 16
  %8 = alloca ptr, align 8
  %9 = alloca i32, align 4
  store ptr %0, ptr %4, align 8, !tbaa !3
  store i8 %1, ptr %5, align 1, !tbaa !16
  call void @llvm.lifetime.start.p0(i64 4, ptr %6) #10
  store i32 -110, ptr %6, align 4, !tbaa !12
  call void @llvm.lifetime.start.p0(i64 32, ptr %7) #10
  call void @llvm.memset.p0.i64(ptr align 16 %7, i8 0, i64 32, i1 false)
  call void @llvm.lifetime.start.p0(i64 8, ptr %8) #10
  %10 = load ptr, ptr %4, align 8, !tbaa !3
  %11 = getelementptr inbounds nuw %struct.mbedtls_ssl_ticket_context, ptr %10, i32 0, i32 0
  %12 = getelementptr inbounds [2 x %struct.mbedtls_ssl_ticket_key], ptr %11, i64 0, i64 0
  %13 = load i8, ptr %5, align 1, !tbaa !16
  %14 = zext i8 %13 to i32
  %15 = sext i32 %14 to i64
  %16 = getelementptr inbounds %struct.mbedtls_ssl_ticket_key, ptr %12, i64 %15
  store ptr %16, ptr %8, align 8, !tbaa !17
  %17 = call i64 @time(ptr noundef null) #10
  %18 = load ptr, ptr %8, align 8, !tbaa !17
  %19 = getelementptr inbounds nuw %struct.mbedtls_ssl_ticket_key, ptr %18, i32 0, i32 1
  store i64 %17, ptr %19, align 8, !tbaa !20
  %20 = load ptr, ptr %4, align 8, !tbaa !3
  %21 = getelementptr inbounds nuw %struct.mbedtls_ssl_ticket_context, ptr %20, i32 0, i32 2
  %22 = load i32, ptr %21, align 4, !tbaa !19
  %23 = load ptr, ptr %8, align 8, !tbaa !17
  %24 = getelementptr inbounds nuw %struct.mbedtls_ssl_ticket_key, ptr %23, i32 0, i32 2
  store i32 %22, ptr %24, align 8, !tbaa !25
  %25 = load ptr, ptr %4, align 8, !tbaa !3
  %26 = getelementptr inbounds nuw %struct.mbedtls_ssl_ticket_context, ptr %25, i32 0, i32 3
  %27 = load ptr, ptr %26, align 8, !tbaa !31
  %28 = load ptr, ptr %4, align 8, !tbaa !3
  %29 = getelementptr inbounds nuw %struct.mbedtls_ssl_ticket_context, ptr %28, i32 0, i32 4
  %30 = load ptr, ptr %29, align 8, !tbaa !32
  %31 = load ptr, ptr %8, align 8, !tbaa !17
  %32 = getelementptr inbounds nuw %struct.mbedtls_ssl_ticket_key, ptr %31, i32 0, i32 0
  %33 = getelementptr inbounds [4 x i8], ptr %32, i64 0, i64 0
  %34 = call i32 %27(ptr noundef %30, ptr noundef %33, i64 noundef 4)
  store i32 %34, ptr %6, align 4, !tbaa !12
  %35 = icmp ne i32 %34, 0
  br i1 %35, label %36, label %38

36:                                               ; preds = %2
  %37 = load i32, ptr %6, align 4, !tbaa !12
  store i32 %37, ptr %3, align 4
  store i32 1, ptr %9, align 4
  br label %60

38:                                               ; preds = %2
  %39 = load ptr, ptr %4, align 8, !tbaa !3
  %40 = getelementptr inbounds nuw %struct.mbedtls_ssl_ticket_context, ptr %39, i32 0, i32 3
  %41 = load ptr, ptr %40, align 8, !tbaa !31
  %42 = load ptr, ptr %4, align 8, !tbaa !3
  %43 = getelementptr inbounds nuw %struct.mbedtls_ssl_ticket_context, ptr %42, i32 0, i32 4
  %44 = load ptr, ptr %43, align 8, !tbaa !32
  %45 = getelementptr inbounds [32 x i8], ptr %7, i64 0, i64 0
  %46 = call i32 %41(ptr noundef %44, ptr noundef %45, i64 noundef 32)
  store i32 %46, ptr %6, align 4, !tbaa !12
  %47 = icmp ne i32 %46, 0
  br i1 %47, label %48, label %50

48:                                               ; preds = %38
  %49 = load i32, ptr %6, align 4, !tbaa !12
  store i32 %49, ptr %3, align 4
  store i32 1, ptr %9, align 4
  br label %60

50:                                               ; preds = %38
  %51 = load ptr, ptr %8, align 8, !tbaa !17
  %52 = getelementptr inbounds nuw %struct.mbedtls_ssl_ticket_key, ptr %51, i32 0, i32 3
  %53 = getelementptr inbounds [32 x i8], ptr %7, i64 0, i64 0
  %54 = load ptr, ptr %8, align 8, !tbaa !17
  %55 = getelementptr inbounds nuw %struct.mbedtls_ssl_ticket_key, ptr %54, i32 0, i32 3
  %56 = call i32 @mbedtls_cipher_get_key_bitlen(ptr noundef %55)
  %57 = call i32 @mbedtls_cipher_setkey(ptr noundef %52, ptr noundef %53, i32 noundef %56, i32 noundef 1)
  store i32 %57, ptr %6, align 4, !tbaa !12
  %58 = getelementptr inbounds [32 x i8], ptr %7, i64 0, i64 0
  call void @mbedtls_platform_zeroize(ptr noundef %58, i64 noundef 32)
  %59 = load i32, ptr %6, align 4, !tbaa !12
  store i32 %59, ptr %3, align 4
  store i32 1, ptr %9, align 4
  br label %60

60:                                               ; preds = %50, %48, %36
  call void @llvm.lifetime.end.p0(i64 8, ptr %8) #10
  call void @llvm.lifetime.end.p0(i64 32, ptr %7) #10
  call void @llvm.lifetime.end.p0(i64 4, ptr %6) #10
  %61 = load i32, ptr %3, align 4
  ret i32 %61
}

; Function Attrs: inlinehint nounwind uwtable
define internal i64 @mbedtls_cipher_info_get_key_bitlen(ptr noundef %0) #3 {
  %2 = alloca i64, align 8
  %3 = alloca ptr, align 8
  store ptr %0, ptr %3, align 8, !tbaa !30
  %4 = load ptr, ptr %3, align 8, !tbaa !30
  %5 = icmp eq ptr %4, null
  br i1 %5, label %6, label %7

6:                                                ; preds = %1
  store i64 0, ptr %2, align 8
  br label %15

7:                                                ; preds = %1
  %8 = load ptr, ptr %3, align 8, !tbaa !30
  %9 = getelementptr inbounds nuw %struct.mbedtls_cipher_info_t, ptr %8, i32 0, i32 1
  %10 = load i32, ptr %9, align 8
  %11 = lshr i32 %10, 8
  %12 = and i32 %11, 15
  %13 = zext i32 %12 to i64
  %14 = shl i64 %13, 6
  store i64 %14, ptr %2, align 8
  br label %15

15:                                               ; preds = %7, %6
  %16 = load i64, ptr %2, align 8
  ret i64 %16
}

; Function Attrs: inlinehint nounwind uwtable
define internal i32 @mbedtls_cipher_info_get_mode(ptr noundef %0) #3 {
  %2 = alloca i32, align 4
  %3 = alloca ptr, align 8
  store ptr %0, ptr %3, align 8, !tbaa !30
  %4 = load ptr, ptr %3, align 8, !tbaa !30
  %5 = icmp eq ptr %4, null
  br i1 %5, label %6, label %7

6:                                                ; preds = %1
  store i32 0, ptr %2, align 4
  br label %13

7:                                                ; preds = %1
  %8 = load ptr, ptr %3, align 8, !tbaa !30
  %9 = getelementptr inbounds nuw %struct.mbedtls_cipher_info_t, ptr %8, i32 0, i32 1
  %10 = load i32, ptr %9, align 8
  %11 = lshr i32 %10, 12
  %12 = and i32 %11, 15
  store i32 %12, ptr %2, align 4
  br label %13

13:                                               ; preds = %7, %6
  %14 = load i32, ptr %2, align 4
  ret i32 %14
}

; Function Attrs: nounwind uwtable
define hidden i32 @mbedtls_ssl_ticket_setup(ptr noundef %0, ptr noundef %1, ptr noundef %2, i32 noundef %3, i32 noundef %4) #0 {
  %6 = alloca i32, align 4
  %7 = alloca ptr, align 8
  %8 = alloca ptr, align 8
  %9 = alloca ptr, align 8
  %10 = alloca i32, align 4
  %11 = alloca i32, align 4
  %12 = alloca i32, align 4
  %13 = alloca i64, align 8
  %14 = alloca ptr, align 8
  %15 = alloca i32, align 4
  store ptr %0, ptr %7, align 8, !tbaa !3
  store ptr %1, ptr %8, align 8, !tbaa !29
  store ptr %2, ptr %9, align 8, !tbaa !29
  store i32 %3, ptr %10, align 4, !tbaa !12
  store i32 %4, ptr %11, align 4, !tbaa !12
  call void @llvm.lifetime.start.p0(i64 4, ptr %12) #10
  store i32 -110, ptr %12, align 4, !tbaa !12
  call void @llvm.lifetime.start.p0(i64 8, ptr %13) #10
  call void @llvm.lifetime.start.p0(i64 8, ptr %14) #10
  %16 = load i32, ptr %10, align 4, !tbaa !12
  %17 = call ptr @mbedtls_cipher_info_from_type(i32 noundef %16)
  store ptr %17, ptr %14, align 8, !tbaa !30
  %18 = load ptr, ptr %14, align 8, !tbaa !30
  %19 = call i32 @mbedtls_cipher_info_get_mode(ptr noundef %18)
  %20 = icmp ne i32 %19, 6
  br i1 %20, label %21, label %30

21:                                               ; preds = %5
  %22 = load ptr, ptr %14, align 8, !tbaa !30
  %23 = call i32 @mbedtls_cipher_info_get_mode(ptr noundef %22)
  %24 = icmp ne i32 %23, 8
  br i1 %24, label %25, label %30

25:                                               ; preds = %21
  %26 = load ptr, ptr %14, align 8, !tbaa !30
  %27 = call i32 @mbedtls_cipher_info_get_mode(ptr noundef %26)
  %28 = icmp ne i32 %27, 11
  br i1 %28, label %29, label %30

29:                                               ; preds = %25
  store i32 -28928, ptr %6, align 4
  store i32 1, ptr %15, align 4
  br label %76

30:                                               ; preds = %25, %21, %5
  %31 = load ptr, ptr %14, align 8, !tbaa !30
  %32 = call i64 @mbedtls_cipher_info_get_key_bitlen(ptr noundef %31)
  store i64 %32, ptr %13, align 8, !tbaa !10
  %33 = load i64, ptr %13, align 8, !tbaa !10
  %34 = icmp ugt i64 %33, 256
  br i1 %34, label %35, label %36

35:                                               ; preds = %30
  store i32 -28928, ptr %6, align 4
  store i32 1, ptr %15, align 4
  br label %76

36:                                               ; preds = %30
  %37 = load ptr, ptr %8, align 8, !tbaa !29
  %38 = load ptr, ptr %7, align 8, !tbaa !3
  %39 = getelementptr inbounds nuw %struct.mbedtls_ssl_ticket_context, ptr %38, i32 0, i32 3
  store ptr %37, ptr %39, align 8, !tbaa !31
  %40 = load ptr, ptr %9, align 8, !tbaa !29
  %41 = load ptr, ptr %7, align 8, !tbaa !3
  %42 = getelementptr inbounds nuw %struct.mbedtls_ssl_ticket_context, ptr %41, i32 0, i32 4
  store ptr %40, ptr %42, align 8, !tbaa !32
  %43 = load i32, ptr %11, align 4, !tbaa !12
  %44 = load ptr, ptr %7, align 8, !tbaa !3
  %45 = getelementptr inbounds nuw %struct.mbedtls_ssl_ticket_context, ptr %44, i32 0, i32 2
  store i32 %43, ptr %45, align 4, !tbaa !19
  %46 = load ptr, ptr %7, align 8, !tbaa !3
  %47 = getelementptr inbounds nuw %struct.mbedtls_ssl_ticket_context, ptr %46, i32 0, i32 0
  %48 = getelementptr inbounds [2 x %struct.mbedtls_ssl_ticket_key], ptr %47, i64 0, i64 0
  %49 = getelementptr inbounds nuw %struct.mbedtls_ssl_ticket_key, ptr %48, i32 0, i32 3
  %50 = load ptr, ptr %14, align 8, !tbaa !30
  %51 = call i32 @mbedtls_cipher_setup(ptr noundef %49, ptr noundef %50)
  store i32 %51, ptr %12, align 4, !tbaa !12
  %52 = icmp ne i32 %51, 0
  br i1 %52, label %53, label %55

53:                                               ; preds = %36
  %54 = load i32, ptr %12, align 4, !tbaa !12
  store i32 %54, ptr %6, align 4
  store i32 1, ptr %15, align 4
  br label %76

55:                                               ; preds = %36
  %56 = load ptr, ptr %7, align 8, !tbaa !3
  %57 = getelementptr inbounds nuw %struct.mbedtls_ssl_ticket_context, ptr %56, i32 0, i32 0
  %58 = getelementptr inbounds [2 x %struct.mbedtls_ssl_ticket_key], ptr %57, i64 0, i64 1
  %59 = getelementptr inbounds nuw %struct.mbedtls_ssl_ticket_key, ptr %58, i32 0, i32 3
  %60 = load ptr, ptr %14, align 8, !tbaa !30
  %61 = call i32 @mbedtls_cipher_setup(ptr noundef %59, ptr noundef %60)
  store i32 %61, ptr %12, align 4, !tbaa !12
  %62 = icmp ne i32 %61, 0
  br i1 %62, label %63, label %65

63:                                               ; preds = %55
  %64 = load i32, ptr %12, align 4, !tbaa !12
  store i32 %64, ptr %6, align 4
  store i32 1, ptr %15, align 4
  br label %76

65:                                               ; preds = %55
  %66 = load ptr, ptr %7, align 8, !tbaa !3
  %67 = call i32 @ssl_ticket_gen_key(ptr noundef %66, i8 noundef zeroext 0)
  store i32 %67, ptr %12, align 4, !tbaa !12
  %68 = icmp ne i32 %67, 0
  br i1 %68, label %73, label %69

69:                                               ; preds = %65
  %70 = load ptr, ptr %7, align 8, !tbaa !3
  %71 = call i32 @ssl_ticket_gen_key(ptr noundef %70, i8 noundef zeroext 1)
  store i32 %71, ptr %12, align 4, !tbaa !12
  %72 = icmp ne i32 %71, 0
  br i1 %72, label %73, label %75

73:                                               ; preds = %69, %65
  %74 = load i32, ptr %12, align 4, !tbaa !12
  store i32 %74, ptr %6, align 4
  store i32 1, ptr %15, align 4
  br label %76

75:                                               ; preds = %69
  store i32 0, ptr %6, align 4
  store i32 1, ptr %15, align 4
  br label %76

76:                                               ; preds = %75, %73, %63, %53, %35, %29
  call void @llvm.lifetime.end.p0(i64 8, ptr %14) #10
  call void @llvm.lifetime.end.p0(i64 8, ptr %13) #10
  call void @llvm.lifetime.end.p0(i64 4, ptr %12) #10
  %77 = load i32, ptr %6, align 4
  ret i32 %77
}