; Function Attrs: nounwind uwtable
define hidden i32 @mbedtls_ssl_ticket_setup(ptr noundef %0, ptr noundef %1, ptr noundef %2, i32 noundef %3, i32 noundef %4) local_unnamed_addr #2 {
  %6 = alloca [32 x i8], align 16
  %7 = alloca [32 x i8], align 16
  %8 = tail call ptr @mbedtls_cipher_info_from_type(i32 noundef %3) #8
  %9 = icmp eq ptr %8, null
  br i1 %9, label %mbedtls_cipher_info_get_mode.exit35.thread, label %mbedtls_cipher_info_get_mode.exit

mbedtls_cipher_info_get_mode.exit:                ; preds = %5
  %10 = getelementptr inbounds nuw i8, ptr %8, i64 8
  %11 = load i32, ptr %10, align 8
  %12 = trunc i32 %11 to i16
  %trunc = and i16 %12, -4096
  switch i16 %trunc, label %mbedtls_cipher_info_get_mode.exit35.thread [
    i16 24576, label %mbedtls_cipher_info_get_key_bitlen.exit
    i16 -32768, label %mbedtls_cipher_info_get_key_bitlen.exit
    i16 -20480, label %mbedtls_cipher_info_get_key_bitlen.exit
  ]

mbedtls_cipher_info_get_key_bitlen.exit:          ; preds = %mbedtls_cipher_info_get_mode.exit, %mbedtls_cipher_info_get_mode.exit, %mbedtls_cipher_info_get_mode.exit
  %13 = and i32 %11, 3840
  %14 = icmp samesign ugt i32 %13, 1024
  br i1 %14, label %mbedtls_cipher_info_get_mode.exit35.thread, label %15

15:                                               ; preds = %mbedtls_cipher_info_get_key_bitlen.exit
  %16 = getelementptr inbounds nuw i8, ptr %0, i64 248
  store ptr %1, ptr %16, align 8, !tbaa !18
  %17 = getelementptr inbounds nuw i8, ptr %0, i64 256
  store ptr %2, ptr %17, align 8, !tbaa !19
  %18 = getelementptr inbounds nuw i8, ptr %0, i64 244
  store i32 %4, ptr %18, align 4, !tbaa !14
  %19 = getelementptr inbounds nuw i8, ptr %0, i64 24
  %20 = tail call i32 @mbedtls_cipher_setup(ptr noundef nonnull %19, ptr noundef nonnull %8) #8
  %.not28 = icmp eq i32 %20, 0
  br i1 %.not28, label %21, label %mbedtls_cipher_info_get_mode.exit35.thread

21:                                               ; preds = %15
  %22 = getelementptr inbounds nuw i8, ptr %0, i64 144
  %23 = tail call i32 @mbedtls_cipher_setup(ptr noundef nonnull %22, ptr noundef nonnull %8) #8
  %.not29 = icmp eq i32 %23, 0
  br i1 %.not29, label %24, label %mbedtls_cipher_info_get_mode.exit35.thread

24:                                               ; preds = %21
  call void @llvm.lifetime.start.p0(i64 32, ptr nonnull %7) #8
  call void @llvm.memset.p0.i64(ptr noundef nonnull align 16 dereferenceable(32) %7, i8 0, i64 32, i1 false)
  %25 = tail call i64 @time(ptr noundef null) #8
  %26 = getelementptr inbounds nuw i8, ptr %0, i64 8
  store i64 %25, ptr %26, align 8, !tbaa !15
  %27 = load i32, ptr %18, align 4, !tbaa !14
  %28 = getelementptr inbounds nuw i8, ptr %0, i64 16
  store i32 %27, ptr %28, align 8, !tbaa !17
  %29 = load ptr, ptr %16, align 8, !tbaa !18
  %30 = load ptr, ptr %17, align 8, !tbaa !19
  %31 = tail call i32 %29(ptr noundef %30, ptr noundef nonnull %0, i64 noundef 4) #8
  %.not.i = icmp eq i32 %31, 0
  br i1 %.not.i, label %32, label %ssl_ticket_gen_key.exit.thread

32:                                               ; preds = %24
  %33 = load ptr, ptr %16, align 8, !tbaa !18
  %34 = load ptr, ptr %17, align 8, !tbaa !19
  %35 = call i32 %33(ptr noundef %34, ptr noundef nonnull %7, i64 noundef 32) #8
  %.not17.i = icmp eq i32 %35, 0
  br i1 %.not17.i, label %36, label %ssl_ticket_gen_key.exit.thread

36:                                               ; preds = %32
  %.val.i = load ptr, ptr %19, align 8, !tbaa !9
  %37 = icmp eq ptr %.val.i, null
  br i1 %37, label %ssl_ticket_gen_key.exit, label %38

38:                                               ; preds = %36
  %39 = getelementptr inbounds nuw i8, ptr %.val.i, i64 8
  %40 = load i32, ptr %39, align 8
  %41 = lshr i32 %40, 2
  %42 = and i32 %41, 960
  br label %ssl_ticket_gen_key.exit

ssl_ticket_gen_key.exit.thread:                   ; preds = %24, %32
  %.0.i37.ph = phi i32 [ %35, %32 ], [ %31, %24 ]
  call void @llvm.lifetime.end.p0(i64 32, ptr nonnull %7) #8
  br label %mbedtls_cipher_info_get_mode.exit35.thread

ssl_ticket_gen_key.exit:                          ; preds = %36, %38
  %.0.i.i = phi i32 [ %42, %38 ], [ 0, %36 ]
  %43 = call i32 @mbedtls_cipher_setkey(ptr noundef nonnull %19, ptr noundef nonnull %7, i32 noundef %.0.i.i, i32 noundef 1) #8
  call void @mbedtls_platform_zeroize(ptr noundef nonnull %7, i64 noundef 32) #8
  call void @llvm.lifetime.end.p0(i64 32, ptr nonnull %7) #8
  %.not30 = icmp eq i32 %43, 0
  br i1 %.not30, label %44, label %mbedtls_cipher_info_get_mode.exit35.thread

44:                                               ; preds = %ssl_ticket_gen_key.exit
  call void @llvm.lifetime.start.p0(i64 32, ptr nonnull %6) #8
  call void @llvm.memset.p0.i64(ptr noundef nonnull align 16 dereferenceable(32) %6, i8 0, i64 32, i1 false)
  %45 = getelementptr inbounds nuw i8, ptr %0, i64 120
  %46 = call i64 @time(ptr noundef null) #8
  %47 = getelementptr inbounds nuw i8, ptr %0, i64 128
  store i64 %46, ptr %47, align 8, !tbaa !15
  %48 = load i32, ptr %18, align 4, !tbaa !14
  %49 = getelementptr inbounds nuw i8, ptr %0, i64 136
  store i32 %48, ptr %49, align 8, !tbaa !17
  %50 = load ptr, ptr %16, align 8, !tbaa !18
  %51 = load ptr, ptr %17, align 8, !tbaa !19
  %52 = call i32 %50(ptr noundef %51, ptr noundef nonnull %45, i64 noundef 4) #8
  %.not.i38 = icmp eq i32 %52, 0
  br i1 %.not.i38, label %53, label %ssl_ticket_gen_key.exit44

53:                                               ; preds = %44
  %54 = load ptr, ptr %16, align 8, !tbaa !18
  %55 = load ptr, ptr %17, align 8, !tbaa !19
  %56 = call i32 %54(ptr noundef %55, ptr noundef nonnull %6, i64 noundef 32) #8
  %.not17.i40 = icmp eq i32 %56, 0
  br i1 %.not17.i40, label %57, label %ssl_ticket_gen_key.exit44

57:                                               ; preds = %53
  %.val.i41 = load ptr, ptr %22, align 8, !tbaa !9
  %58 = icmp eq ptr %.val.i41, null
  br i1 %58, label %mbedtls_cipher_get_key_bitlen.exit.i42, label %59

59:                                               ; preds = %57
  %60 = getelementptr inbounds nuw i8, ptr %.val.i41, i64 8
  %61 = load i32, ptr %60, align 8
  %62 = lshr i32 %61, 2
  %63 = and i32 %62, 960
  br label %mbedtls_cipher_get_key_bitlen.exit.i42

mbedtls_cipher_get_key_bitlen.exit.i42:           ; preds = %59, %57
  %.0.i.i43 = phi i32 [ %63, %59 ], [ 0, %57 ]
  %64 = call i32 @mbedtls_cipher_setkey(ptr noundef nonnull %22, ptr noundef nonnull %6, i32 noundef %.0.i.i43, i32 noundef 1) #8
  call void @mbedtls_platform_zeroize(ptr noundef nonnull %6, i64 noundef 32) #8
  br label %ssl_ticket_gen_key.exit44

ssl_ticket_gen_key.exit44:                        ; preds = %44, %53, %mbedtls_cipher_get_key_bitlen.exit.i42
  %.0.i39 = phi i32 [ %64, %mbedtls_cipher_get_key_bitlen.exit.i42 ], [ %52, %44 ], [ %56, %53 ]
  call void @llvm.lifetime.end.p0(i64 32, ptr nonnull %6) #8
  br label %mbedtls_cipher_info_get_mode.exit35.thread

mbedtls_cipher_info_get_mode.exit35.thread:       ; preds = %mbedtls_cipher_info_get_mode.exit, %5, %ssl_ticket_gen_key.exit.thread, %ssl_ticket_gen_key.exit44, %ssl_ticket_gen_key.exit, %21, %15, %mbedtls_cipher_info_get_key_bitlen.exit
  %.0 = phi i32 [ -28928, %mbedtls_cipher_info_get_key_bitlen.exit ], [ %20, %15 ], [ %23, %21 ], [ %43, %ssl_ticket_gen_key.exit ], [ %.0.i39, %ssl_ticket_gen_key.exit44 ], [ %.0.i37.ph, %ssl_ticket_gen_key.exit.thread ], [ -28928, %5 ], [ -28928, %mbedtls_cipher_info_get_mode.exit ]
  ret i32 %.0
}